target datalayout = "e-m:e-p270:32:32-p271:32:32-p272:64:64-i64:64-i128:128-f80:128-n8:16:32:64-S128"
target triple = "x86_64-pc-linux-gnu"

%struct.redisServer = type { i32, i64, ptr, ptr, ptr, i32, i32, i32, i32, i32, ptr, ptr, ptr, ptr, ptr, i32, i32, i32, i32, i64, i32, i32, i32, i32, ptr, i32, i32, [41 x i8], i32, i64, i32, i32, i32, ptr, ptr, i32, i32, i64, ptr, ptr, ptr, ptr, [2 x i32], i32, i32, i32, i32, i32, i32, [16 x ptr], i32, ptr, ptr, i32, [8 x %struct.connListener], i32, %struct.connListener, ptr, ptr, ptr, ptr, ptr, ptr, ptr, ptr, ptr, ptr, i32, ptr, i32, ptr, [3 x %struct.pause_event], [256 x i8], ptr, i64, i32, i32, [128 x i32], i32, i32, i64, i32, i32, i32, i32, i32, i64, i64, i64, i64, i64, i64, i64, i64, i64, i64, double, i64, i64, i64, i64, i64, i64, i64, i64, i64, i64, i64, i64, i64, i64, i64, i64, i64, i64, i64, i64, i64, double, i64, i64, i64, i64, i64, ptr, i64, i64, i64, %struct.malloc_stats, i64, i64, i64, i64, i64, i64, i64, i64, i64, i64, i64, i64, double, [4 x i64], i64, i64, i64, i64, [128 x i64], [128 x i64], i64, i64, [7 x %struct.anon], i64, i64, i64, i64, i64, i64, [4 x %struct.durationStats], i32, i32, i32, i32, i32, i32, i32, i32, i32, i32, i32, i32, i64, i32, i32, i32, i32, i64, i64, i32, i32, i32, i32, i32, ptr, [3 x %struct.clientBufferLimitsConfig], i32, i32, i32, ptr, i32, i32, i32, i32, i32, i32, ptr, ptr, i32, i32, i64, i64, i64, i64, i64, i32, i32, ptr, i32, i32, i64, i64, i64, i64, i64, i32, i32, i64, i32, i32, i32, i32, i32, i32, i32, i32, ptr, i32, i64, i64, i64, i64, i32, ptr, i32, ptr, i32, i32, i32, i64, i64, i64, i64, i32, i32, i32, i32, i32, i32, ptr, i32, i32, ptr, i32, i32, i32, [2 x i32], i32, %struct.redisOpArray, i32, ptr, i32, ptr, i32, i32, i32, i32, i32, i32, i32, [41 x i8], [41 x i8], i64, i64, i64, i64, i32, i32, ptr, i64, i64, %struct.replDataBuf, i64, i64, i32, i32, i32, i32, i32, i32, i32, i32, i32, i64, ptr, i64, ptr, ptr, ptr, i32, i32, ptr, ptr, i32, i32, i32, i64, i64, i64, i64, ptr, ptr, i32, ptr, i64, i32, i32, i32, i64, i32, i32, i32, i32, ptr, i32, i32, [41 x i8], i64, i32, ptr, i32, i32, i64, i64, i32, i32, i32, i32, i32, i64, [3 x i32], i32, i32, i32, [10 x i32], ptr, ptr, i32, i64, ptr, ptr, i32, i32, i32, i32, i64, i64, i64, i64, i64, i64, i64, i64, i64, i64, i32, i32, i64, i64, i32, i64, i64, i64, i64, i64, ptr, ptr, i32, ptr, i32, i32, i32, i32, i64, i64, ptr, ptr, i32, i32, i32, i32, i32, ptr, ptr, ptr, i32, i32, i32, i32, i32, i32, i32, i64, i32, i32, i64, i32, i32, i32, i32, i32, i32, i32, i64, ptr, ptr, i64, ptr, i32, %struct.aclInfo, i32, i64, i32, i32, i32, %struct.redisTLSContextConfig, ptr, ptr, ptr, ptr, ptr, i64, i32, ptr, i32, i32, i32, i64, i32, ptr }
%struct.connListener = type { [16 x i32], i32, ptr, i32, i32, ptr, ptr }
%struct.pause_event = type { i32, i64 }
%struct.malloc_stats = type { i64, i64, i64, i64, i64, i64, i64, i64, i64, i64, i64 }
%struct.anon = type { i64, i64, [16 x i64], i32 }
%struct.durationStats = type { i64, i64, i64 }
%struct.clientBufferLimitsConfig = type { i64, i64, i64 }
%struct.redisOpArray = type { ptr, i32, i32 }
%struct.replDataBuf = type { ptr, i64, i64, i64, i64 }
%struct.aclInfo = type { i64, i64, i64, i64 }
%struct.redisTLSContextConfig = type { ptr, ptr, ptr, ptr, ptr, ptr, ptr, ptr, ptr, ptr, ptr, ptr, i32, i32, i32, i32 }
%struct.dict = type { ptr, [2 x ptr], [2 x i64], i64, i16, [2 x i8], i16, [0 x ptr] }
%struct.dictExpireMetadata = type { %struct.ExpireMeta, ptr, ptr }
%struct.ExpireMeta = type { i32, i16, i16, ptr }
%struct.redisObject = type { i32, i32, ptr }
%struct.listpackEx = type { %struct.ExpireMeta, ptr, ptr }
%struct.ExpireCtx = type { i32, ptr }

@hashFieldExpireBucketsType = dso_local global { ptr, ptr, i32, [4 x i8] } { ptr @hfieldGetExpireMeta, ptr null, i32 1, [4 x i8] zeroinitializer }, align 8
@.str.2 = private unnamed_addr constant [9 x i8] c"t_hash.c\00", align 1
@server = external global %struct.redisServer, align 8
@.str.10 = private unnamed_addr constant [31 x i8] c"o->encoding == OBJ_ENCODING_HT\00", align 1

; Function Attrs: inlinehint nounwind uwtable
define internal i64 @ebGetMetaExpTime(ptr noundef %0) #7 {
  %2 = alloca ptr, align 8
  store ptr %0, ptr %2, align 8, !tbaa !72
  %3 = load ptr, ptr %2, align 8, !tbaa !72
  %4 = getelementptr inbounds nuw %struct.ExpireMeta, ptr %3, i32 0, i32 1
  %5 = load i16, ptr %4, align 4, !tbaa !146
  %6 = zext i16 %5 to i64
  %7 = shl i64 %6, 32
  %8 = load ptr, ptr %2, align 8, !tbaa !72
  %9 = getelementptr inbounds nuw %struct.ExpireMeta, ptr %8, i32 0, i32 0
  %10 = load i32, ptr %9, align 8, !tbaa !147
  %11 = zext i32 %10 to i64
  %12 = or i64 %7, %11
  ret i64 %12
}

; Function Attrs: inlinehint nounwind uwtable
define internal i32 @isDictWithMetaHFE(ptr noundef %0) #7 {
  %2 = alloca ptr, align 8
  store ptr %0, ptr %2, align 8, !tbaa !5
  %3 = load ptr, ptr %2, align 8, !tbaa !5
  %4 = getelementptr inbounds nuw %struct.dict, ptr %3, i32 0, i32 0
  %5 = load ptr, ptr %4, align 8, !tbaa !128
  %6 = icmp eq ptr %5, @mstrHashDictTypeWithHFE
  %7 = zext i1 %6 to i32
  ret i32 %7
}

; Function Attrs: nounwind uwtable
define dso_local i64 @hashTypeGetMinExpire(ptr noundef %0, i32 noundef %1) #1 {
  %3 = alloca i64, align 8
  %4 = alloca ptr, align 8
  %5 = alloca i32, align 4
  %6 = alloca ptr, align 8
  %7 = alloca i32, align 4
  %8 = alloca ptr, align 8
  %9 = alloca ptr, align 8
  %10 = alloca ptr, align 8
  %11 = alloca ptr, align 8
  store ptr %0, ptr %4, align 8, !tbaa !15
  store i32 %1, ptr %5, align 4, !tbaa !13
  call void @llvm.lifetime.start.p0(i64 8, ptr %6) #12
  store ptr null, ptr %6, align 8, !tbaa !72
  %12 = load i32, ptr %5, align 4, !tbaa !13
  %13 = icmp ne i32 %12, 0
  br i1 %13, label %76, label %14

14:                                               ; preds = %2
  %15 = load ptr, ptr %4, align 8, !tbaa !15
  %16 = load i32, ptr %15, align 8
  %17 = lshr i32 %16, 4
  %18 = and i32 %17, 15
  %19 = icmp eq i32 %18, 11
  br i1 %19, label %20, label %21

20:                                               ; preds = %14
  store i64 281474976710656, ptr %3, align 8
  store i32 1, ptr %7, align 4
  br label %123

21:                                               ; preds = %14
  %22 = load ptr, ptr %4, align 8, !tbaa !15
  %23 = load i32, ptr %22, align 8
  %24 = lshr i32 %23, 4
  %25 = and i32 %24, 15
  %26 = icmp eq i32 %25, 12
  br i1 %26, label %27, label %33

27:                                               ; preds = %21
  call void @llvm.lifetime.start.p0(i64 8, ptr %8) #12
  %28 = load ptr, ptr %4, align 8, !tbaa !15
  %29 = getelementptr inbounds nuw %struct.redisObject, ptr %28, i32 0, i32 2
  %30 = load ptr, ptr %29, align 8, !tbaa !17
  store ptr %30, ptr %8, align 8, !tbaa !19
  %31 = load ptr, ptr %8, align 8, !tbaa !19
  %32 = getelementptr inbounds nuw %struct.listpackEx, ptr %31, i32 0, i32 0
  store ptr %32, ptr %6, align 8, !tbaa !72
  call void @llvm.lifetime.end.p0(i64 8, ptr %8) #12
  br label %63

33:                                               ; preds = %21
  %34 = load ptr, ptr %4, align 8, !tbaa !15
  %35 = load i32, ptr %34, align 8
  %36 = lshr i32 %35, 4
  %37 = and i32 %36, 15
  %38 = icmp eq i32 %37, 2
  %39 = xor i1 %38, true
  %40 = xor i1 %39, true
  %41 = zext i1 %40 to i32
  %42 = sext i32 %41 to i64
  %43 = call i64 @llvm.expect.i64(i64 %42, i64 1)
  %44 = icmp ne i64 %43, 0
  br i1 %44, label %45, label %46

45:                                               ; preds = %33
  br label %48

46:                                               ; preds = %33
  call void @_serverAssert(ptr noundef @.str.10, ptr noundef @.str.2, i32 noundef 1974)
  call void @abort() #14
  unreachable

47:                                               ; No predecessors!
  br label %48

48:                                               ; preds = %47, %45
  call void @llvm.lifetime.start.p0(i64 8, ptr %9) #12
  %49 = load ptr, ptr %4, align 8, !tbaa !15
  %50 = getelementptr inbounds nuw %struct.redisObject, ptr %49, i32 0, i32 2
  %51 = load ptr, ptr %50, align 8, !tbaa !17
  store ptr %51, ptr %9, align 8, !tbaa !5
  %52 = load ptr, ptr %9, align 8, !tbaa !5
  %53 = call i32 @isDictWithMetaHFE(ptr noundef %52)
  %54 = icmp ne i32 %53, 0
  br i1 %54, label %56, label %55

55:                                               ; preds = %48
  store i64 281474976710656, ptr %3, align 8
  store i32 1, ptr %7, align 4
  br label %60

56:                                               ; preds = %48
  %57 = load ptr, ptr %9, align 8, !tbaa !5
  %58 = getelementptr inbounds nuw %struct.dict, ptr %57, i32 0, i32 7
  %59 = getelementptr inbounds nuw %struct.dictExpireMetadata, ptr %58, i32 0, i32 0
  store ptr %59, ptr %6, align 8, !tbaa !72
  store i32 0, ptr %7, align 4
  br label %60

60:                                               ; preds = %56, %55
  call void @llvm.lifetime.end.p0(i64 8, ptr %9) #12
  %61 = load i32, ptr %7, align 4
  switch i32 %61, label %123 [
    i32 0, label %62
  ]

62:                                               ; preds = %60
  br label %63

63:                                               ; preds = %62, %27
  br label %64

64:                                               ; preds = %63
  %65 = load ptr, ptr %6, align 8, !tbaa !72
  %66 = getelementptr inbounds nuw %struct.ExpireMeta, ptr %65, i32 0, i32 2
  %67 = load i16, ptr %66, align 2
  %68 = lshr i16 %67, 8
  %69 = and i16 %68, 1
  %70 = zext i16 %69 to i32
  %71 = icmp eq i32 %70, 1
  br i1 %71, label %72, label %73

72:                                               ; preds = %64
  store i64 281474976710656, ptr %3, align 8
  store i32 1, ptr %7, align 4
  br label %123

73:                                               ; preds = %64
  %74 = load ptr, ptr %6, align 8, !tbaa !72
  %75 = call i64 @ebGetMetaExpTime(ptr noundef %74)
  store i64 %75, ptr %3, align 8
  store i32 1, ptr %7, align 4
  br label %123

76:                                               ; preds = %2
  %77 = load ptr, ptr %4, align 8, !tbaa !15
  %78 = load i32, ptr %77, align 8
  %79 = lshr i32 %78, 4
  %80 = and i32 %79, 15
  %81 = icmp eq i32 %80, 11
  br i1 %81, label %82, label %83

82:                                               ; preds = %76
  store i64 281474976710656, ptr %3, align 8
  store i32 1, ptr %7, align 4
  br label %123

83:                                               ; preds = %76
  %84 = load ptr, ptr %4, align 8, !tbaa !15
  %85 = load i32, ptr %84, align 8
  %86 = lshr i32 %85, 4
  %87 = and i32 %86, 15
  %88 = icmp eq i32 %87, 12
  br i1 %88, label %89, label %92

89:                                               ; preds = %83
  %90 = load ptr, ptr %4, align 8, !tbaa !15
  %91 = call i64 @listpackExGetMinExpire(ptr noundef %90)
  store i64 %91, ptr %3, align 8
  store i32 1, ptr %7, align 4
  br label %123

92:                                               ; preds = %83
  %93 = load ptr, ptr %4, align 8, !tbaa !15
  %94 = load i32, ptr %93, align 8
  %95 = lshr i32 %94, 4
  %96 = and i32 %95, 15
  %97 = icmp eq i32 %96, 2
  %98 = xor i1 %97, true
  %99 = xor i1 %98, true
  %100 = zext i1 %99 to i32
  %101 = sext i32 %100 to i64
  %102 = call i64 @llvm.expect.i64(i64 %101, i64 1)
  %103 = icmp ne i64 %102, 0
  br i1 %103, label %104, label %105

104:                                              ; preds = %92
  br label %107

105:                                              ; preds = %92
  call void @_serverAssert(ptr noundef @.str.10, ptr noundef @.str.2, i32 noundef 1997)
  call void @abort() #14
  unreachable

106:                                              ; No predecessors!
  br label %107

107:                                              ; preds = %106, %104
  call void @llvm.lifetime.start.p0(i64 8, ptr %10) #12
  %108 = load ptr, ptr %4, align 8, !tbaa !15
  %109 = getelementptr inbounds nuw %struct.redisObject, ptr %108, i32 0, i32 2
  %110 = load ptr, ptr %109, align 8, !tbaa !17
  store ptr %110, ptr %10, align 8, !tbaa !5
  %111 = load ptr, ptr %10, align 8, !tbaa !5
  %112 = call i32 @isDictWithMetaHFE(ptr noundef %111)
  %113 = icmp ne i32 %112, 0
  br i1 %113, label %115, label %114

114:                                              ; preds = %107
  store i64 281474976710656, ptr %3, align 8
  store i32 1, ptr %7, align 4
  br label %122

115:                                              ; preds = %107
  call void @llvm.lifetime.start.p0(i64 8, ptr %11) #12
  %116 = load ptr, ptr %10, align 8, !tbaa !5
  %117 = getelementptr inbounds nuw %struct.dict, ptr %116, i32 0, i32 7
  store ptr %117, ptr %11, align 8, !tbaa !11
  %118 = load ptr, ptr %11, align 8, !tbaa !11
  %119 = getelementptr inbounds nuw %struct.dictExpireMetadata, ptr %118, i32 0, i32 1
  %120 = load ptr, ptr %119, align 8, !tbaa !74
  %121 = call i64 @ebGetNextTimeToExpire(ptr noundef %120, ptr noundef @hashFieldExpireBucketsType)
  store i64 %121, ptr %3, align 8
  store i32 1, ptr %7, align 4
  call void @llvm.lifetime.end.p0(i64 8, ptr %11) #12
  br label %122

122:                                              ; preds = %115, %114
  call void @llvm.lifetime.end.p0(i64 8, ptr %10) #12
  br label %123

123:                                              ; preds = %122, %89, %82, %73, %72, %60, %20
  call void @llvm.lifetime.end.p0(i64 8, ptr %6) #12
  %124 = load i64, ptr %3, align 8
  ret i64 %124
}

; Function Attrs: nounwind uwtable
define internal i32 @hashTypeExpireIfNeeded(ptr noundef %0, ptr noundef %1) #1 {
  %3 = alloca i32, align 4
  %4 = alloca ptr, align 8
  %5 = alloca ptr, align 8
  %6 = alloca i64, align 8
  %7 = alloca i64, align 8
  %8 = alloca i32, align 4
  %9 = alloca %struct.ExpireCtx, align 8
  store ptr %0, ptr %4, align 8, !tbaa !27
  store ptr %1, ptr %5, align 8, !tbaa !15
  call void @llvm.lifetime.start.p0(i64 8, ptr %6) #12
  call void @llvm.lifetime.start.p0(i64 8, ptr %7) #12
  %10 = load ptr, ptr %5, align 8, !tbaa !15
  %11 = call i64 @hashTypeGetMinExpire(ptr noundef %10, i32 noundef 1)
  store i64 %11, ptr %7, align 8, !tbaa !31
  %12 = load i64, ptr %7, align 8, !tbaa !31
  %13 = call i64 @commandTimeSnapshot()
  %14 = icmp sge i64 %12, %13
  br i1 %14, label %15, label %16

15:                                               ; preds = %2
  store i32 0, ptr %3, align 4
  store i32 1, ptr %8, align 4
  br label %39

16:                                               ; preds = %2
  %17 = load volatile i32, ptr getelementptr inbounds nuw (%struct.redisServer, ptr @server, i32 0, i32 84), align 4, !tbaa !121
  %18 = icmp ne i32 %17, 0
  br i1 %18, label %28, label %19

19:                                               ; preds = %16
  %20 = load i32, ptr getelementptr inbounds nuw (%struct.redisServer, ptr @server, i32 0, i32 165), align 8, !tbaa !122
  %21 = icmp ne i32 %20, 0
  br i1 %21, label %28, label %22

22:                                               ; preds = %19
  %23 = load ptr, ptr getelementptr inbounds nuw (%struct.redisServer, ptr @server, i32 0, i32 297), align 8, !tbaa !111
  %24 = icmp ne ptr %23, null
  br i1 %24, label %28, label %25

25:                                               ; preds = %22
  %26 = call i32 @isPausedActionsWithUpdate(i32 noundef 4)
  %27 = icmp ne i32 %26, 0
  br i1 %27, label %28, label %29

28:                                               ; preds = %25, %22, %19, %16
  store i32 0, ptr %3, align 4
  store i32 1, ptr %8, align 4
  br label %39

29:                                               ; preds = %25
  call void @llvm.lifetime.start.p0(i64 16, ptr %9) #12
  %30 = getelementptr inbounds nuw %struct.ExpireCtx, ptr %9, i32 0, i32 0
  store i32 -1, ptr %30, align 8, !tbaa !148
  %31 = getelementptr i8, ptr %9, i64 4
  call void @llvm.memset.p0.i64(ptr align 4 %31, i8 0, i64 4, i1 false)
  %32 = getelementptr inbounds nuw %struct.ExpireCtx, ptr %9, i32 0, i32 1
  %33 = load ptr, ptr %4, align 8, !tbaa !27
  store ptr %33, ptr %32, align 8, !tbaa !150
  %34 = load ptr, ptr %5, align 8, !tbaa !15
  %35 = call i64 @hashTypeExpire(ptr noundef %34, ptr noundef %9, i32 noundef 1)
  store i64 %35, ptr %6, align 8, !tbaa !31
  %36 = load i64, ptr %6, align 8, !tbaa !31
  %37 = icmp eq i64 %36, 0
  %38 = zext i1 %37 to i32
  store i32 %38, ptr %3, align 4
  store i32 1, ptr %8, align 4
  call void @llvm.lifetime.end.p0(i64 16, ptr %9) #12
  br label %39

39:                                               ; preds = %29, %28, %15
  call void @llvm.lifetime.end.p0(i64 8, ptr %7) #12
  call void @llvm.lifetime.end.p0(i64 8, ptr %6) #12
  %40 = load i32, ptr %3, align 4
  ret i32 %40
}