; Function Attrs: nounwind uwtable
define internal fastcc range(i32 0, 2) i32 @hashTypeExpireIfNeeded(ptr noundef %0, ptr noundef nonnull %1) unnamed_addr #1 {
  %3 = alloca %struct.ExpireCtx, align 8
  %4 = load i32, ptr %1, align 8
  %5 = lshr i32 %4, 4
  %6 = and i32 %5, 15
  switch i32 %6, label %9 [
    i32 11, label %hashTypeGetMinExpire.exit
    i32 12, label %7
    i32 2, label %10
  ], !prof !55

7:                                                ; preds = %2
  %8 = tail call fastcc i64 @listpackExGetMinExpire(ptr noundef nonnull readonly %1)
  br label %hashTypeGetMinExpire.exit

9:                                                ; preds = %2
  tail call void @_serverAssert(ptr noundef nonnull @.str.10, ptr noundef nonnull @.str.2, i32 noundef 1997) #16
  tail call void @abort() #17
  unreachable

10:                                               ; preds = %2
  %11 = getelementptr inbounds nuw i8, ptr %1, i64 8
  %12 = load ptr, ptr %11, align 8, !tbaa !10
  %.val29.i = load ptr, ptr %12, align 8, !tbaa !56
  %.not30.i = icmp eq ptr %.val29.i, @mstrHashDictTypeWithHFE
  br i1 %.not30.i, label %13, label %hashTypeGetMinExpire.exit

13:                                               ; preds = %10
  %14 = getelementptr inbounds nuw i8, ptr %12, i64 72
  %15 = load ptr, ptr %14, align 8, !tbaa !58
  %16 = tail call i64 @ebGetNextTimeToExpire(ptr noundef %15, ptr noundef nonnull @hashFieldExpireBucketsType) #16
  br label %hashTypeGetMinExpire.exit

hashTypeGetMinExpire.exit:                        ; preds = %2, %7, %10, %13
  %.0.i = phi i64 [ %8, %7 ], [ 281474976710656, %2 ], [ %16, %13 ], [ 281474976710656, %10 ]
  %17 = tail call i64 @commandTimeSnapshot() #16
  %.not = icmp slt i64 %.0.i, %17
  br i1 %.not, label %18, label %33

18:                                               ; preds = %hashTypeGetMinExpire.exit
  %19 = load volatile i32, ptr getelementptr inbounds nuw (i8, ptr @server, i64 2412), align 4, !tbaa !102
  %20 = icmp ne i32 %19, 0
  %21 = load i32, ptr getelementptr inbounds nuw (i8, ptr @server, i64 6312), align 8
  %22 = icmp ne i32 %21, 0
  %or.cond = select i1 %20, i1 true, i1 %22
  %23 = load ptr, ptr getelementptr inbounds nuw (i8, ptr @server, i64 7264), align 8
  %24 = icmp ne ptr %23, null
  %or.cond3 = select i1 %or.cond, i1 true, i1 %24
  br i1 %or.cond3, label %33, label %25

25:                                               ; preds = %18
  %26 = tail call i32 @isPausedActionsWithUpdate(i32 noundef 4) #16
  %.not8 = icmp eq i32 %26, 0
  br i1 %.not8, label %27, label %33

27:                                               ; preds = %25
  call void @llvm.lifetime.start.p0(i64 16, ptr nonnull %3) #16
  store i32 -1, ptr %3, align 8, !tbaa !127
  %28 = getelementptr inbounds nuw i8, ptr %3, i64 4
  store i32 0, ptr %28, align 4
  %29 = getelementptr inbounds nuw i8, ptr %3, i64 8
  store ptr %0, ptr %29, align 8, !tbaa !129
  %30 = call fastcc i64 @hashTypeExpire(ptr noundef nonnull %1, ptr noundef nonnull %3, i32 noundef 1)
  %31 = icmp eq i64 %30, 0
  %32 = zext i1 %31 to i32
  call void @llvm.lifetime.end.p0(i64 16, ptr nonnull %3) #16
  br label %33

33:                                               ; preds = %18, %25, %hashTypeGetMinExpire.exit, %27
  %.0 = phi i32 [ %32, %27 ], [ 0, %hashTypeGetMinExpire.exit ], [ 0, %25 ], [ 0, %18 ]
  ret i32 %.0
}